; Function Attrs: mustprogress uwtable
define void @_ZN6casadi17SerializingStream4packERKNS_11GenericTypeE(ptr noundef nonnull align 8 dereferenceable(73) %0, ptr noundef nonnull align 8 dereferenceable(8) %1) local_unnamed_addr #3 align 2 {
  %3 = getelementptr inbounds i8, ptr %0, i64 72
  %4 = load i8, ptr %3, align 8
  %5 = and i8 %4, 1
  %.not.i = icmp eq i8 %5, 0
  br i1 %.not.i, label %_ZN6casadi17SerializingStream8decorateEc.exit, label %6

6:                                                ; preds = %2
  %7 = getelementptr inbounds i8, ptr %0, i64 64
  %8 = load ptr, ptr %7, align 8
  %9 = tail call noundef nonnull align 8 dereferenceable(8) ptr @_ZNSo3putEc(ptr noundef nonnull align 8 dereferenceable(8) %8, i8 noundef signext 104)
  %10 = load ptr, ptr %7, align 8
  %11 = tail call noundef nonnull align 8 dereferenceable(8) ptr @_ZNSo3putEc(ptr noundef nonnull align 8 dereferenceable(8) %10, i8 noundef signext 101)
  br label %_ZN6casadi17SerializingStream8decorateEc.exit

_ZN6casadi17SerializingStream8decorateEc.exit:    ; preds = %2, %6
  tail call void @_ZN6casadi17SerializingStream11shared_packINS_11GenericTypeEEEvRKT_(ptr noundef nonnull align 8 dereferenceable(73) %0, ptr noundef nonnull align 8 dereferenceable(8) %1)
  ret void
}